target datalayout = "e-m:e-p270:32:32-p271:32:32-p272:64:64-i64:64-i128:128-f80:128-n8:16:32:64-S128"
target triple = "x86_64-pc-linux-gnu"

%struct.ForEachState = type { ptr, i32 }
%union.ListCell = type { ptr }
%struct.PlannerInfo = type { i32, ptr, ptr, i32, ptr, ptr, ptr, ptr, i32, ptr, ptr, ptr, ptr, ptr, ptr, ptr, ptr, i32, ptr, ptr, ptr, ptr, ptr, i8, ptr, ptr, ptr, ptr, ptr, i32, ptr, ptr, ptr, ptr, ptr, ptr, ptr, i32, ptr, ptr, ptr, i32, ptr, ptr, ptr, ptr, ptr, ptr, [8 x ptr], [8 x ptr], ptr, ptr, ptr, ptr, ptr, ptr, ptr, double, double, double, i32, i8, i8, i8, i8, i8, i8, i8, i32, ptr, ptr, i32, i8, i8, i32, ptr, ptr, ptr, ptr, ptr, ptr, i8, ptr }
%struct.List = type { i32, i32, i32, ptr, [0 x %union.ListCell] }
%struct.EquivalenceClass = type { i32, ptr, i32, ptr, ptr, ptr, ptr, i8, i8, i8, i32, i32, i32, ptr }
%struct.EquivalenceMember = type { i32, ptr, ptr, i8, i8, i32, ptr, ptr }

; Function Attrs: nounwind uwtable
define dso_local zeroext i1 @exprs_known_equal(ptr noundef %0, ptr noundef %1, ptr noundef %2, i32 noundef %3) #0 {
  %5 = alloca i1, align 1
  %6 = alloca ptr, align 8
  %7 = alloca ptr, align 8
  %8 = alloca ptr, align 8
  %9 = alloca i32, align 4
  %10 = alloca ptr, align 8
  %11 = alloca %struct.ForEachState, align 8
  %12 = alloca i32, align 4
  %13 = alloca ptr, align 8
  %14 = alloca i8, align 1
  %15 = alloca i8, align 1
  %16 = alloca ptr, align 8
  %17 = alloca %struct.ForEachState, align 8
  %18 = alloca ptr, align 8
  store ptr %0, ptr %6, align 8
  store ptr %1, ptr %7, align 8
  store ptr %2, ptr %8, align 8
  store i32 %3, ptr %9, align 4
  call void @llvm.lifetime.start.p0(i64 8, ptr %10) #6
  call void @llvm.lifetime.start.p0(i64 16, ptr %11) #6
  %19 = getelementptr inbounds nuw %struct.ForEachState, ptr %11, i32 0, i32 0
  %20 = load ptr, ptr %6, align 8
  %21 = getelementptr inbounds nuw %struct.PlannerInfo, ptr %20, i32 0, i32 22
  %22 = load ptr, ptr %21, align 8
  store ptr %22, ptr %19, align 8
  %23 = getelementptr inbounds nuw %struct.ForEachState, ptr %11, i32 0, i32 1
  store i32 0, ptr %23, align 8
  %24 = getelementptr i8, ptr %11, i64 12
  call void @llvm.memset.p0.i64(ptr align 4 %24, i8 0, i64 4, i1 false)
  br label %25

25:                                               ; preds = %146, %4
  %26 = getelementptr inbounds nuw %struct.ForEachState, ptr %11, i32 0, i32 0
  %27 = load ptr, ptr %26, align 8
  %28 = icmp ne ptr %27, null
  br i1 %28, label %29, label %46

29:                                               ; preds = %25
  %30 = getelementptr inbounds nuw %struct.ForEachState, ptr %11, i32 0, i32 1
  %31 = load i32, ptr %30, align 8
  %32 = getelementptr inbounds nuw %struct.ForEachState, ptr %11, i32 0, i32 0
  %33 = load ptr, ptr %32, align 8
  %34 = getelementptr inbounds nuw %struct.List, ptr %33, i32 0, i32 1
  %35 = load i32, ptr %34, align 4
  %36 = icmp slt i32 %31, %35
  br i1 %36, label %37, label %46

37:                                               ; preds = %29
  %38 = getelementptr inbounds nuw %struct.ForEachState, ptr %11, i32 0, i32 0
  %39 = load ptr, ptr %38, align 8
  %40 = getelementptr inbounds nuw %struct.List, ptr %39, i32 0, i32 3
  %41 = load ptr, ptr %40, align 8
  %42 = getelementptr inbounds nuw %struct.ForEachState, ptr %11, i32 0, i32 1
  %43 = load i32, ptr %42, align 8
  %44 = sext i32 %43 to i64
  %45 = getelementptr inbounds %union.ListCell, ptr %41, i64 %44
  store ptr %45, ptr %10, align 8
  br label %47

46:                                               ; preds = %29, %25
  store ptr null, ptr %10, align 8
  br label %47

47:                                               ; preds = %46, %37
  %48 = phi i32 [ 1, %37 ], [ 0, %46 ]
  %49 = icmp ne i32 %48, 0
  br i1 %49, label %51, label %50

50:                                               ; preds = %47
  store i32 2, ptr %12, align 4
  br label %150

51:                                               ; preds = %47
  call void @llvm.lifetime.start.p0(i64 8, ptr %13) #6
  %52 = load ptr, ptr %10, align 8
  %53 = load ptr, ptr %52, align 8
  store ptr %53, ptr %13, align 8
  call void @llvm.lifetime.start.p0(i64 1, ptr %14) #6
  store i8 0, ptr %14, align 1
  call void @llvm.lifetime.start.p0(i64 1, ptr %15) #6
  store i8 0, ptr %15, align 1
  call void @llvm.lifetime.start.p0(i64 8, ptr %16) #6
  %54 = load ptr, ptr %13, align 8
  %55 = getelementptr inbounds nuw %struct.EquivalenceClass, ptr %54, i32 0, i32 8
  %56 = load i8, ptr %55, align 1, !range !4, !noundef !5
  %57 = trunc i8 %56 to i1
  br i1 %57, label %58, label %59

58:                                               ; preds = %51
  store i32 4, ptr %12, align 4
  br label %143

59:                                               ; preds = %51
  %60 = load i32, ptr %9, align 4
  %61 = icmp ne i32 %60, 0
  br i1 %61, label %62, label %69

62:                                               ; preds = %59
  %63 = load ptr, ptr %13, align 8
  %64 = getelementptr inbounds nuw %struct.EquivalenceClass, ptr %63, i32 0, i32 1
  %65 = load ptr, ptr %64, align 8
  %66 = load i32, ptr %9, align 4
  %67 = call zeroext i1 @list_member_oid(ptr noundef %65, i32 noundef %66)
  br i1 %67, label %69, label %68

68:                                               ; preds = %62
  store i32 4, ptr %12, align 4
  br label %143

69:                                               ; preds = %62, %59
  call void @llvm.lifetime.start.p0(i64 16, ptr %17) #6
  %70 = getelementptr inbounds nuw %struct.ForEachState, ptr %17, i32 0, i32 0
  %71 = load ptr, ptr %13, align 8
  %72 = getelementptr inbounds nuw %struct.EquivalenceClass, ptr %71, i32 0, i32 3
  %73 = load ptr, ptr %72, align 8
  store ptr %73, ptr %70, align 8
  %74 = getelementptr inbounds nuw %struct.ForEachState, ptr %17, i32 0, i32 1
  store i32 0, ptr %74, align 8
  %75 = getelementptr i8, ptr %17, i64 12
  call void @llvm.memset.p0.i64(ptr align 4 %75, i8 0, i64 4, i1 false)
  br label %76

76:                                               ; preds = %136, %69
  %77 = getelementptr inbounds nuw %struct.ForEachState, ptr %17, i32 0, i32 0
  %78 = load ptr, ptr %77, align 8
  %79 = icmp ne ptr %78, null
  br i1 %79, label %80, label %97

80:                                               ; preds = %76
  %81 = getelementptr inbounds nuw %struct.ForEachState, ptr %17, i32 0, i32 1
  %82 = load i32, ptr %81, align 8
  %83 = getelementptr inbounds nuw %struct.ForEachState, ptr %17, i32 0, i32 0
  %84 = load ptr, ptr %83, align 8
  %85 = getelementptr inbounds nuw %struct.List, ptr %84, i32 0, i32 1
  %86 = load i32, ptr %85, align 4
  %87 = icmp slt i32 %82, %86
  br i1 %87, label %88, label %97

88:                                               ; preds = %80
  %89 = getelementptr inbounds nuw %struct.ForEachState, ptr %17, i32 0, i32 0
  %90 = load ptr, ptr %89, align 8
  %91 = getelementptr inbounds nuw %struct.List, ptr %90, i32 0, i32 3
  %92 = load ptr, ptr %91, align 8
  %93 = getelementptr inbounds nuw %struct.ForEachState, ptr %17, i32 0, i32 1
  %94 = load i32, ptr %93, align 8
  %95 = sext i32 %94 to i64
  %96 = getelementptr inbounds %union.ListCell, ptr %92, i64 %95
  store ptr %96, ptr %16, align 8
  br label %98

97:                                               ; preds = %80, %76
  store ptr null, ptr %16, align 8
  br label %98

98:                                               ; preds = %97, %88
  %99 = phi i32 [ 1, %88 ], [ 0, %97 ]
  %100 = icmp ne i32 %99, 0
  br i1 %100, label %102, label %101

101:                                              ; preds = %98
  store i32 5, ptr %12, align 4
  br label %140

102:                                              ; preds = %98
  call void @llvm.lifetime.start.p0(i64 8, ptr %18) #6
  %103 = load ptr, ptr %16, align 8
  %104 = load ptr, ptr %103, align 8
  store ptr %104, ptr %18, align 8
  %105 = load ptr, ptr %18, align 8
  %106 = getelementptr inbounds nuw %struct.EquivalenceMember, ptr %105, i32 0, i32 4
  %107 = load i8, ptr %106, align 1, !range !4, !noundef !5
  %108 = trunc i8 %107 to i1
  br i1 %108, label %109, label %110

109:                                              ; preds = %102
  store i32 7, ptr %12, align 4
  br label %133

110:                                              ; preds = %102
  %111 = load ptr, ptr %7, align 8
  %112 = load ptr, ptr %18, align 8
  %113 = getelementptr inbounds nuw %struct.EquivalenceMember, ptr %112, i32 0, i32 1
  %114 = load ptr, ptr %113, align 8
  %115 = call zeroext i1 @equal(ptr noundef %111, ptr noundef %114)
  br i1 %115, label %116, label %117

116:                                              ; preds = %110
  store i8 1, ptr %14, align 1
  br label %125

117:                                              ; preds = %110
  %118 = load ptr, ptr %8, align 8
  %119 = load ptr, ptr %18, align 8
  %120 = getelementptr inbounds nuw %struct.EquivalenceMember, ptr %119, i32 0, i32 1
  %121 = load ptr, ptr %120, align 8
  %122 = call zeroext i1 @equal(ptr noundef %118, ptr noundef %121)
  br i1 %122, label %123, label %124

123:                                              ; preds = %117
  store i8 1, ptr %15, align 1
  br label %124

124:                                              ; preds = %123, %117
  br label %125

125:                                              ; preds = %124, %116
  %126 = load i8, ptr %14, align 1, !range !4, !noundef !5
  %127 = trunc i8 %126 to i1
  br i1 %127, label %128, label %132

128:                                              ; preds = %125
  %129 = load i8, ptr %15, align 1, !range !4, !noundef !5
  %130 = trunc i8 %129 to i1
  br i1 %130, label %131, label %132

131:                                              ; preds = %128
  store i1 true, ptr %5, align 1
  store i32 1, ptr %12, align 4
  br label %133

132:                                              ; preds = %128, %125
  store i32 0, ptr %12, align 4
  br label %133

133:                                              ; preds = %132, %131, %109
  call void @llvm.lifetime.end.p0(i64 8, ptr %18) #6
  %134 = load i32, ptr %12, align 4
  switch i32 %134, label %140 [
    i32 0, label %135
    i32 7, label %136
  ]

135:                                              ; preds = %133
  br label %136

136:                                              ; preds = %135, %133
  %137 = getelementptr inbounds nuw %struct.ForEachState, ptr %17, i32 0, i32 1
  %138 = load i32, ptr %137, align 8
  %139 = add i32 %138, 1
  store i32 %139, ptr %137, align 8
  br label %76, !llvm.loop !48

140:                                              ; preds = %133, %101
  call void @llvm.lifetime.end.p0(i64 16, ptr %17) #6
  %141 = load i32, ptr %12, align 4
  switch i32 %141, label %143 [
    i32 5, label %142
  ]

142:                                              ; preds = %140
  store i32 0, ptr %12, align 4
  br label %143

143:                                              ; preds = %142, %140, %68, %58
  call void @llvm.lifetime.end.p0(i64 8, ptr %16) #6
  call void @llvm.lifetime.end.p0(i64 1, ptr %15) #6
  call void @llvm.lifetime.end.p0(i64 1, ptr %14) #6
  call void @llvm.lifetime.end.p0(i64 8, ptr %13) #6
  %144 = load i32, ptr %12, align 4
  switch i32 %144, label %150 [
    i32 0, label %145
    i32 4, label %146
  ]

145:                                              ; preds = %143
  br label %146

146:                                              ; preds = %145, %143
  %147 = getelementptr inbounds nuw %struct.ForEachState, ptr %11, i32 0, i32 1
  %148 = load i32, ptr %147, align 8
  %149 = add i32 %148, 1
  store i32 %149, ptr %147, align 8
  br label %25, !llvm.loop !49

150:                                              ; preds = %143, %50
  call void @llvm.lifetime.end.p0(i64 16, ptr %11) #6
  %151 = load i32, ptr %12, align 4
  switch i32 %151, label %153 [
    i32 2, label %152
  ]

152:                                              ; preds = %150
  store i1 false, ptr %5, align 1
  store i32 1, ptr %12, align 4
  br label %153

153:                                              ; preds = %152, %150
  call void @llvm.lifetime.end.p0(i64 8, ptr %10) #6
  %154 = load i1, ptr %5, align 1
  ret i1 %154
}