; Function Attrs: nounwind uwtable
define dso_local noundef zeroext i1 @exprs_known_equal(ptr noundef readonly captures(none) %0, ptr noundef %1, ptr noundef %2, i32 noundef %3) local_unnamed_addr #0 {
  %5 = getelementptr inbounds nuw i8, ptr %0, i64 176
  %6 = load ptr, ptr %5, align 8
  %.not = icmp eq ptr %6, null
  br i1 %.not, label %.thread, label %.lr.ph86

.lr.ph86:                                         ; preds = %4
  %7 = getelementptr inbounds nuw i8, ptr %6, i64 4
  %8 = getelementptr inbounds nuw i8, ptr %6, i64 16
  %.not47 = icmp eq i32 %3, 0
  %9 = load i32, ptr %7, align 4
  %10 = icmp sgt i32 %9, 0
  br i1 %10, label %.lr.ph95, label %.thread

.lr.ph95:                                         ; preds = %.lr.ph86, %.loopexit
  %indvars.iv8994 = phi i64 [ %indvars.iv.next90, %.loopexit ], [ 0, %.lr.ph86 ]
  %11 = load ptr, ptr %8, align 8
  %12 = getelementptr inbounds nuw %union.ListCell, ptr %11, i64 %indvars.iv8994
  %13 = load ptr, ptr %12, align 8
  %14 = getelementptr inbounds nuw i8, ptr %13, i64 57
  %15 = load i8, ptr %14, align 1, !range !4, !noundef !5
  %16 = trunc nuw i8 %15 to i1
  br i1 %16, label %.loopexit, label %17

17:                                               ; preds = %.lr.ph95
  br i1 %.not47, label %22, label %18

18:                                               ; preds = %17
  %19 = getelementptr inbounds nuw i8, ptr %13, i64 8
  %20 = load ptr, ptr %19, align 8
  %21 = tail call zeroext i1 @list_member_oid(ptr noundef %20, i32 noundef %3) #8
  br i1 %21, label %22, label %.loopexit

22:                                               ; preds = %18, %17
  %23 = getelementptr inbounds nuw i8, ptr %13, i64 24
  %24 = load ptr, ptr %23, align 8
  %.not48 = icmp eq ptr %24, null
  br i1 %.not48, label %.loopexit, label %.lr.ph

.lr.ph:                                           ; preds = %22
  %25 = getelementptr inbounds nuw i8, ptr %24, i64 4
  %26 = getelementptr inbounds nuw i8, ptr %24, i64 16
  %27 = load i32, ptr %25, align 4
  %28 = icmp sgt i32 %27, 0
  br i1 %28, label %.lr.ph84, label %.loopexit

.lr.ph84:                                         ; preds = %.lr.ph, %42
  %indvars.iv = phi i64 [ %indvars.iv.next, %42 ], [ 0, %.lr.ph ]
  %.0367783 = phi i1 [ %.137.ph, %42 ], [ false, %.lr.ph ]
  %.0337882 = phi i1 [ %.134.ph, %42 ], [ false, %.lr.ph ]
  %29 = load ptr, ptr %26, align 8
  %30 = getelementptr inbounds nuw %union.ListCell, ptr %29, i64 %indvars.iv
  %31 = load ptr, ptr %30, align 8
  %32 = getelementptr inbounds nuw i8, ptr %31, i64 25
  %33 = load i8, ptr %32, align 1, !range !4, !noundef !5
  %34 = trunc nuw i8 %33 to i1
  br i1 %34, label %42, label %35

35:                                               ; preds = %.lr.ph84
  %36 = getelementptr inbounds nuw i8, ptr %31, i64 8
  %37 = load ptr, ptr %36, align 8
  %38 = tail call zeroext i1 @equal(ptr noundef %1, ptr noundef %37) #8
  br i1 %38, label %.thread56, label %39

39:                                               ; preds = %35
  %40 = load ptr, ptr %36, align 8
  %41 = tail call zeroext i1 @equal(ptr noundef %2, ptr noundef %40) #8
  %spec.select = select i1 %41, i1 true, i1 %.0337882
  br i1 %.0367783, label %.thread56, label %42

.thread56:                                        ; preds = %35, %39
  %.23561 = phi i1 [ %spec.select, %39 ], [ %.0337882, %35 ]
  br i1 %.23561, label %.thread, label %42

42:                                               ; preds = %.thread56, %.lr.ph84, %39
  %.137.ph = phi i1 [ false, %39 ], [ %.0367783, %.lr.ph84 ], [ true, %.thread56 ]
  %.134.ph = phi i1 [ %spec.select, %39 ], [ %.0337882, %.lr.ph84 ], [ false, %.thread56 ]
  %indvars.iv.next = add nuw nsw i64 %indvars.iv, 1
  %43 = load i32, ptr %25, align 4
  %44 = sext i32 %43 to i64
  %45 = icmp slt i64 %indvars.iv.next, %44
  br i1 %45, label %.lr.ph84, label %.loopexit

.loopexit:                                        ; preds = %42, %22, %.lr.ph, %.lr.ph95, %18
  %indvars.iv.next90 = add nuw nsw i64 %indvars.iv8994, 1
  %46 = load i32, ptr %7, align 4
  %47 = sext i32 %46 to i64
  %48 = icmp slt i64 %indvars.iv.next90, %47
  br i1 %48, label %.lr.ph95, label %.thread

.thread:                                          ; preds = %.loopexit, %.thread56, %.lr.ph86, %4
  %cond = phi i1 [ false, %4 ], [ false, %.lr.ph86 ], [ true, %.thread56 ], [ false, %.loopexit ]
  ret i1 %cond
}